target datalayout = "e-m:e-p270:32:32-p271:32:32-p272:64:64-i64:64-i128:128-f80:128-n8:16:32:64-S128"
target triple = "x86_64-pc-linux-gnu"

%struct._object = type { %union.anon, ptr }
%union.anon = type { i64 }
%struct.PyVarObject = type { %struct._object, i64 }
%struct.PyTupleObject = type { %struct.PyVarObject, [1 x ptr] }
%struct._typeobject = type { %struct.PyVarObject, ptr, i64, i64, ptr, i64, ptr, ptr, ptr, ptr, ptr, ptr, ptr, ptr, ptr, ptr, ptr, ptr, ptr, i64, ptr, ptr, ptr, ptr, i64, ptr, ptr, ptr, ptr, ptr, ptr, ptr, ptr, ptr, i64, ptr, ptr, ptr, ptr, ptr, ptr, ptr, ptr, ptr, ptr, ptr, i32, ptr, ptr, i8, i16 }
%struct.anon = type { i32, i32 }
%struct.gaobject = type { %struct._object, ptr, ptr, ptr, ptr, i8, ptr }

@.str.35 = private unnamed_addr constant [13 x i8] c"GenericAlias\00", align 1

; Function Attrs: alwaysinline nounwind uwtable
define internal i32 @_Py_IsImmortal(ptr noundef %0) #4 {
  %2 = alloca ptr, align 8
  store ptr %0, ptr %2, align 8, !tbaa !4
  %3 = load ptr, ptr %2, align 8, !tbaa !4
  %4 = getelementptr inbounds nuw %struct._object, ptr %3, i32 0, i32 0
  %5 = getelementptr inbounds nuw %struct.anon, ptr %4, i32 0, i32 0
  %6 = load i32, ptr %5, align 8, !tbaa !17
  %7 = icmp slt i32 %6, 0
  %8 = zext i1 %7 to i32
  ret i32 %8
}

; Function Attrs: inlinehint nounwind uwtable
define internal ptr @_Py_NewRef(ptr noundef %0) #2 {
  %2 = alloca ptr, align 8
  store ptr %0, ptr %2, align 8, !tbaa !4
  %3 = load ptr, ptr %2, align 8, !tbaa !4
  call void @Py_INCREF(ptr noundef %3)
  %4 = load ptr, ptr %2, align 8, !tbaa !4
  ret ptr %4
}

; Function Attrs: alwaysinline nounwind uwtable
define internal void @Py_INCREF(ptr noundef %0) #4 {
  %2 = alloca ptr, align 8
  %3 = alloca i32, align 4
  %4 = alloca i32, align 4
  store ptr %0, ptr %2, align 8, !tbaa !4
  call void @llvm.lifetime.start.p0(i64 4, ptr %3) #5
  %5 = load ptr, ptr %2, align 8, !tbaa !4
  %6 = getelementptr inbounds nuw %struct._object, ptr %5, i32 0, i32 0
  %7 = getelementptr inbounds nuw %struct.anon, ptr %6, i32 0, i32 0
  %8 = load i32, ptr %7, align 8, !tbaa !17
  store i32 %8, ptr %3, align 4, !tbaa !11
  %9 = load i32, ptr %3, align 4, !tbaa !11
  %10 = icmp slt i32 %9, 0
  br i1 %10, label %11, label %12

11:                                               ; preds = %1
  store i32 1, ptr %4, align 4
  br label %18

12:                                               ; preds = %1
  %13 = load i32, ptr %3, align 4, !tbaa !11
  %14 = add i32 %13, 1
  %15 = load ptr, ptr %2, align 8, !tbaa !4
  %16 = getelementptr inbounds nuw %struct._object, ptr %15, i32 0, i32 0
  %17 = getelementptr inbounds nuw %struct.anon, ptr %16, i32 0, i32 0
  store i32 %14, ptr %17, align 8, !tbaa !17
  store i32 0, ptr %4, align 4
  br label %18

18:                                               ; preds = %12, %11
  call void @llvm.lifetime.end.p0(i64 4, ptr %3) #5
  %19 = load i32, ptr %4, align 4
  switch i32 %19, label %21 [
    i32 0, label %20
    i32 1, label %20
  ]

20:                                               ; preds = %18, %18
  ret void

21:                                               ; preds = %18
  unreachable
}

; Function Attrs: inlinehint nounwind uwtable
define internal i32 @PyType_HasFeature(ptr noundef %0, i64 noundef %1) #2 {
  %3 = alloca ptr, align 8
  %4 = alloca i64, align 8
  %5 = alloca i64, align 8
  store ptr %0, ptr %3, align 8, !tbaa !18
  store i64 %1, ptr %4, align 8, !tbaa !9
  call void @llvm.lifetime.start.p0(i64 8, ptr %5) #5
  %6 = load ptr, ptr %3, align 8, !tbaa !18
  %7 = getelementptr inbounds nuw %struct._typeobject, ptr %6, i32 0, i32 19
  %8 = load i64, ptr %7, align 8, !tbaa !20
  store i64 %8, ptr %5, align 8, !tbaa !9
  %9 = load i64, ptr %5, align 8, !tbaa !9
  %10 = load i64, ptr %4, align 8, !tbaa !9
  %11 = and i64 %9, %10
  %12 = icmp ne i64 %11, 0
  %13 = zext i1 %12 to i32
  call void @llvm.lifetime.end.p0(i64 8, ptr %5) #5
  ret i32 %13
}

; Function Attrs: inlinehint nounwind uwtable
define internal ptr @_Py_TYPE(ptr noundef %0) #2 {
  %2 = alloca ptr, align 8
  store ptr %0, ptr %2, align 8, !tbaa !4
  %3 = load ptr, ptr %2, align 8, !tbaa !4
  %4 = getelementptr inbounds nuw %struct._object, ptr %3, i32 0, i32 1
  %5 = load ptr, ptr %4, align 8, !tbaa !29
  ret ptr %5
}

; Function Attrs: inlinehint nounwind uwtable
define internal i64 @Py_SIZE(ptr noundef %0) #2 {
  %2 = alloca ptr, align 8
  store ptr %0, ptr %2, align 8, !tbaa !4
  %3 = load ptr, ptr %2, align 8, !tbaa !4
  %4 = getelementptr inbounds nuw %struct.PyVarObject, ptr %3, i32 0, i32 1
  %5 = load i64, ptr %4, align 8, !tbaa !59
  ret i64 %5
}

; Function Attrs: alwaysinline nounwind uwtable
define internal void @Py_DECREF(ptr noundef %0) #4 {
  %2 = alloca ptr, align 8
  store ptr %0, ptr %2, align 8, !tbaa !4
  %3 = load ptr, ptr %2, align 8, !tbaa !4
  %4 = call i32 @_Py_IsImmortal(ptr noundef %3)
  %5 = icmp ne i32 %4, 0
  br i1 %5, label %6, label %7

6:                                                ; preds = %1
  br label %16

7:                                                ; preds = %1
  %8 = load ptr, ptr %2, align 8, !tbaa !4
  %9 = getelementptr inbounds nuw %struct._object, ptr %8, i32 0, i32 0
  %10 = getelementptr inbounds nuw %struct.anon, ptr %9, i32 0, i32 0
  %11 = load i32, ptr %10, align 8, !tbaa !17
  %12 = add i32 %11, -1
  store i32 %12, ptr %10, align 8, !tbaa !17
  %13 = icmp eq i32 %12, 0
  br i1 %13, label %14, label %16

14:                                               ; preds = %7
  %15 = load ptr, ptr %2, align 8, !tbaa !4
  call void @_Py_Dealloc(ptr noundef %15)
  br label %16

16:                                               ; preds = %6, %14, %7
  ret void
}

; Function Attrs: inlinehint nounwind uwtable
define internal i32 @setup_ga(ptr noundef %0, ptr noundef %1, ptr noundef %2) #2 {
  %4 = alloca i32, align 4
  %5 = alloca ptr, align 8
  %6 = alloca ptr, align 8
  %7 = alloca ptr, align 8
  store ptr %0, ptr %5, align 8, !tbaa !16
  store ptr %1, ptr %6, align 8, !tbaa !4
  store ptr %2, ptr %7, align 8, !tbaa !4
  %8 = load ptr, ptr %7, align 8, !tbaa !4
  %9 = call ptr @_Py_TYPE(ptr noundef %8)
  %10 = call i32 @PyType_HasFeature(ptr noundef %9, i64 noundef 67108864)
  %11 = icmp ne i32 %10, 0
  br i1 %11, label %19, label %12

12:                                               ; preds = %3
  %13 = load ptr, ptr %7, align 8, !tbaa !4
  %14 = call ptr (i64, ...) @PyTuple_Pack(i64 noundef 1, ptr noundef %13)
  store ptr %14, ptr %7, align 8, !tbaa !4
  %15 = load ptr, ptr %7, align 8, !tbaa !4
  %16 = icmp eq ptr %15, null
  br i1 %16, label %17, label %18

17:                                               ; preds = %12
  store i32 0, ptr %4, align 4
  br label %43

18:                                               ; preds = %12
  br label %21

19:                                               ; preds = %3
  %20 = load ptr, ptr %7, align 8, !tbaa !4
  call void @Py_INCREF(ptr noundef %20)
  br label %21

21:                                               ; preds = %19, %18
  %22 = load ptr, ptr %6, align 8, !tbaa !4
  %23 = call ptr @_Py_NewRef(ptr noundef %22)
  %24 = load ptr, ptr %5, align 8, !tbaa !16
  %25 = getelementptr inbounds nuw %struct.gaobject, ptr %24, i32 0, i32 1
  store ptr %23, ptr %25, align 8, !tbaa !41
  %26 = load ptr, ptr %7, align 8, !tbaa !4
  %27 = load ptr, ptr %5, align 8, !tbaa !16
  %28 = getelementptr inbounds nuw %struct.gaobject, ptr %27, i32 0, i32 2
  store ptr %26, ptr %28, align 8, !tbaa !44
  %29 = load ptr, ptr %5, align 8, !tbaa !16
  %30 = getelementptr inbounds nuw %struct.gaobject, ptr %29, i32 0, i32 3
  store ptr null, ptr %30, align 8, !tbaa !47
  %31 = load ptr, ptr %5, align 8, !tbaa !16
  %32 = getelementptr inbounds nuw %struct.gaobject, ptr %31, i32 0, i32 4
  store ptr null, ptr %32, align 8, !tbaa !46
  %33 = load ptr, ptr %6, align 8, !tbaa !4
  %34 = call ptr @PyVectorcall_Function(ptr noundef %33)
  %35 = icmp ne ptr %34, null
  br i1 %35, label %36, label %39

36:                                               ; preds = %21
  %37 = load ptr, ptr %5, align 8, !tbaa !16
  %38 = getelementptr inbounds nuw %struct.gaobject, ptr %37, i32 0, i32 6
  store ptr @ga_vectorcall, ptr %38, align 8, !tbaa !58
  br label %42

39:                                               ; preds = %21
  %40 = load ptr, ptr %5, align 8, !tbaa !16
  %41 = getelementptr inbounds nuw %struct.gaobject, ptr %40, i32 0, i32 6
  store ptr null, ptr %41, align 8, !tbaa !58
  br label %42

42:                                               ; preds = %39, %36
  store i32 1, ptr %4, align 4
  br label %43

43:                                               ; preds = %42, %17
  %44 = load i32, ptr %4, align 4
  ret i32 %44
}

; Function Attrs: inlinehint nounwind uwtable
define internal i64 @PyTuple_GET_SIZE(ptr noundef %0) #2 {
  %2 = alloca ptr, align 8
  %3 = alloca ptr, align 8
  store ptr %0, ptr %2, align 8, !tbaa !4
  call void @llvm.lifetime.start.p0(i64 8, ptr %3) #5
  %4 = load ptr, ptr %2, align 8, !tbaa !4
  store ptr %4, ptr %3, align 8, !tbaa !16
  %5 = load ptr, ptr %3, align 8, !tbaa !16
  %6 = call i64 @Py_SIZE(ptr noundef %5)
  call void @llvm.lifetime.end.p0(i64 8, ptr %3) #5
  ret i64 %6
}

; Function Attrs: nounwind uwtable
define internal ptr @ga_new(ptr noundef %0, ptr noundef %1, ptr noundef %2) #0 {
  %4 = alloca ptr, align 8
  %5 = alloca ptr, align 8
  %6 = alloca ptr, align 8
  %7 = alloca ptr, align 8
  %8 = alloca ptr, align 8
  %9 = alloca ptr, align 8
  %10 = alloca ptr, align 8
  %11 = alloca i32, align 4
  store ptr %0, ptr %5, align 8, !tbaa !18
  store ptr %1, ptr %6, align 8, !tbaa !4
  store ptr %2, ptr %7, align 8, !tbaa !4
  %12 = load ptr, ptr %7, align 8, !tbaa !4
  %13 = icmp eq ptr %12, null
  br i1 %13, label %19, label %14

14:                                               ; preds = %3
  %15 = load ptr, ptr %7, align 8, !tbaa !4
  %16 = call i32 @_PyArg_NoKeywords(ptr noundef @.str.35, ptr noundef %15)
  %17 = icmp ne i32 %16, 0
  br i1 %17, label %19, label %18

18:                                               ; preds = %14
  store ptr null, ptr %4, align 8
  br label %61

19:                                               ; preds = %14, %3
  %20 = load ptr, ptr %6, align 8, !tbaa !4
  %21 = call i64 @PyTuple_GET_SIZE(ptr noundef %20)
  %22 = icmp sle i64 2, %21
  br i1 %22, label %23, label %27

23:                                               ; preds = %19
  %24 = load ptr, ptr %6, align 8, !tbaa !4
  %25 = call i64 @PyTuple_GET_SIZE(ptr noundef %24)
  %26 = icmp sle i64 %25, 2
  br i1 %26, label %33, label %27

27:                                               ; preds = %23, %19
  %28 = load ptr, ptr %6, align 8, !tbaa !4
  %29 = call i64 @PyTuple_GET_SIZE(ptr noundef %28)
  %30 = call i32 @_PyArg_CheckPositional(ptr noundef @.str.35, i64 noundef %29, i64 noundef 2, i64 noundef 2)
  %31 = icmp ne i32 %30, 0
  br i1 %31, label %33, label %32

32:                                               ; preds = %27
  store ptr null, ptr %4, align 8
  br label %61

33:                                               ; preds = %27, %23
  call void @llvm.lifetime.start.p0(i64 8, ptr %8) #5
  %34 = load ptr, ptr %6, align 8, !tbaa !4
  %35 = getelementptr inbounds nuw %struct.PyTupleObject, ptr %34, i32 0, i32 1
  %36 = getelementptr [1 x ptr], ptr %35, i64 0, i64 0
  %37 = load ptr, ptr %36, align 8, !tbaa !4
  store ptr %37, ptr %8, align 8, !tbaa !4
  call void @llvm.lifetime.start.p0(i64 8, ptr %9) #5
  %38 = load ptr, ptr %6, align 8, !tbaa !4
  %39 = getelementptr inbounds nuw %struct.PyTupleObject, ptr %38, i32 0, i32 1
  %40 = getelementptr [1 x ptr], ptr %39, i64 0, i64 1
  %41 = load ptr, ptr %40, align 8, !tbaa !4
  store ptr %41, ptr %9, align 8, !tbaa !4
  call void @llvm.lifetime.start.p0(i64 8, ptr %10) #5
  %42 = load ptr, ptr %5, align 8, !tbaa !18
  %43 = getelementptr inbounds nuw %struct._typeobject, ptr %42, i32 0, i32 36
  %44 = load ptr, ptr %43, align 8, !tbaa !57
  %45 = load ptr, ptr %5, align 8, !tbaa !18
  %46 = call ptr %44(ptr noundef %45, i64 noundef 0)
  store ptr %46, ptr %10, align 8, !tbaa !16
  %47 = load ptr, ptr %10, align 8, !tbaa !16
  %48 = icmp eq ptr %47, null
  br i1 %48, label %49, label %50

49:                                               ; preds = %33
  store ptr null, ptr %4, align 8
  store i32 1, ptr %11, align 4
  br label %60

50:                                               ; preds = %33
  %51 = load ptr, ptr %10, align 8, !tbaa !16
  %52 = load ptr, ptr %8, align 8, !tbaa !4
  %53 = load ptr, ptr %9, align 8, !tbaa !4
  %54 = call i32 @setup_ga(ptr noundef %51, ptr noundef %52, ptr noundef %53)
  %55 = icmp ne i32 %54, 0
  br i1 %55, label %58, label %56

56:                                               ; preds = %50
  %57 = load ptr, ptr %10, align 8, !tbaa !16
  call void @Py_DECREF(ptr noundef %57)
  store ptr null, ptr %4, align 8
  store i32 1, ptr %11, align 4
  br label %60

58:                                               ; preds = %50
  %59 = load ptr, ptr %10, align 8, !tbaa !16
  store ptr %59, ptr %4, align 8
  store i32 1, ptr %11, align 4
  br label %60

60:                                               ; preds = %58, %56, %49
  call void @llvm.lifetime.end.p0(i64 8, ptr %10) #5
  call void @llvm.lifetime.end.p0(i64 8, ptr %9) #5
  call void @llvm.lifetime.end.p0(i64 8, ptr %8) #5
  br label %61

61:                                               ; preds = %60, %32, %18
  %62 = load ptr, ptr %4, align 8
  ret ptr %62
}