; Function Attrs: nounwind uwtable
define internal ptr @ga_new(ptr noundef %0, ptr noundef readonly captures(none) %1, ptr noundef %2) #0 {
  %4 = icmp eq ptr %2, null
  br i1 %4, label %7, label %5

5:                                                ; preds = %3
  %6 = tail call i32 @_PyArg_NoKeywords(ptr noundef nonnull @.str.35, ptr noundef nonnull %2) #5
  %.not = icmp eq i32 %6, 0
  br i1 %.not, label %Py_DECREF.exit, label %7

7:                                                ; preds = %5, %3
  %8 = getelementptr i8, ptr %1, i64 16
  %.val21 = load i64, ptr %8, align 8, !tbaa !4
  %or.cond = icmp eq i64 %.val21, 2
  br i1 %or.cond, label %11, label %9

9:                                                ; preds = %7
  %10 = tail call i32 @_PyArg_CheckPositional(ptr noundef nonnull @.str.35, i64 noundef %.val21, i64 noundef 2, i64 noundef 2) #5
  %.not18 = icmp eq i32 %10, 0
  br i1 %.not18, label %Py_DECREF.exit, label %11

11:                                               ; preds = %7, %9
  %12 = getelementptr inbounds nuw i8, ptr %1, i64 24
  %13 = load ptr, ptr %12, align 8, !tbaa !12
  %14 = getelementptr i8, ptr %1, i64 32
  %15 = load ptr, ptr %14, align 8, !tbaa !12
  %16 = getelementptr inbounds nuw i8, ptr %0, i64 304
  %17 = load ptr, ptr %16, align 8, !tbaa !55
  %18 = tail call ptr %17(ptr noundef %0, i64 noundef 0) #5
  %19 = icmp eq ptr %18, null
  br i1 %19, label %Py_DECREF.exit, label %20

20:                                               ; preds = %11
  %21 = getelementptr i8, ptr %15, i64 8
  %.val.i = load ptr, ptr %21, align 8, !tbaa !14
  %22 = getelementptr i8, ptr %.val.i, i64 168
  %.val16.i = load i64, ptr %22, align 8, !tbaa !15
  %23 = and i64 %.val16.i, 67108864
  %.not.i22 = icmp eq i64 %23, 0
  br i1 %.not.i22, label %24, label %27

24:                                               ; preds = %20
  %25 = tail call ptr (i64, ...) @PyTuple_Pack(i64 noundef 1, ptr noundef nonnull %15) #5
  %26 = icmp eq ptr %25, null
  br i1 %26, label %41, label %Py_INCREF.exit.i

27:                                               ; preds = %20
  %28 = load i32, ptr %15, align 8, !tbaa !23
  %29 = icmp slt i32 %28, 0
  br i1 %29, label %Py_INCREF.exit.i, label %30

30:                                               ; preds = %27
  %31 = add nuw i32 %28, 1
  store i32 %31, ptr %15, align 8, !tbaa !23
  br label %Py_INCREF.exit.i

Py_INCREF.exit.i:                                 ; preds = %30, %27, %24
  %.0.i = phi ptr [ %25, %24 ], [ %15, %27 ], [ %15, %30 ]
  %32 = load i32, ptr %13, align 8, !tbaa !23
  %33 = icmp slt i32 %32, 0
  br i1 %33, label %setup_ga.exit, label %34

34:                                               ; preds = %Py_INCREF.exit.i
  %35 = add nuw i32 %32, 1
  store i32 %35, ptr %13, align 8, !tbaa !23
  br label %setup_ga.exit

setup_ga.exit:                                    ; preds = %Py_INCREF.exit.i, %34
  %36 = getelementptr inbounds nuw i8, ptr %18, i64 16
  store ptr %13, ptr %36, align 8, !tbaa !33
  %37 = getelementptr inbounds nuw i8, ptr %18, i64 24
  store ptr %.0.i, ptr %37, align 8, !tbaa !34
  %38 = getelementptr inbounds nuw i8, ptr %18, i64 32
  tail call void @llvm.memset.p0.i64(ptr noundef nonnull align 8 dereferenceable(16) %38, i8 0, i64 16, i1 false)
  %39 = tail call ptr @PyVectorcall_Function(ptr noundef nonnull %13) #5
  %.not15.i = icmp eq ptr %39, null
  %40 = getelementptr inbounds nuw i8, ptr %18, i64 56
  %.ga_vectorcall.i = select i1 %.not15.i, ptr null, ptr @ga_vectorcall
  store ptr %.ga_vectorcall.i, ptr %40, align 8, !tbaa !56
  br label %Py_DECREF.exit

41:                                               ; preds = %24
  %42 = load i32, ptr %18, align 8, !tbaa !23
  %.not.i = icmp sgt i32 %42, -1
  br i1 %.not.i, label %43, label %Py_DECREF.exit

43:                                               ; preds = %41
  %44 = add nsw i32 %42, -1
  store i32 %44, ptr %18, align 8, !tbaa !23
  %45 = icmp eq i32 %44, 0
  br i1 %45, label %46, label %Py_DECREF.exit

46:                                               ; preds = %43
  tail call void @_Py_Dealloc(ptr noundef nonnull %18) #5
  br label %Py_DECREF.exit

Py_DECREF.exit:                                   ; preds = %46, %43, %41, %setup_ga.exit, %11, %9, %5
  %.0 = phi ptr [ null, %5 ], [ null, %9 ], [ null, %11 ], [ %18, %setup_ga.exit ], [ null, %41 ], [ null, %43 ], [ null, %46 ]
  ret ptr %.0
}